; Function Attrs: mustprogress nofree norecurse nosync nounwind willreturn memory(argmem: readwrite) uwtable
define void @_ZN3vcg10Rubberband4DragE6QPoint(ptr nocapture noundef nonnull align 8 dereferenceable(49) %0, i64 %1) local_unnamed_addr #10 align 2 {
  %3 = getelementptr inbounds i8, ptr %0, i64 12
  %4 = load i32, ptr %3, align 4
  %5 = icmp eq i32 %4, 1
  br i1 %5, label %6, label %8

6:                                                ; preds = %2
  %7 = getelementptr inbounds i8, ptr %0, i64 16
  store i64 %1, ptr %7, align 8
  br label %8

8:                                                ; preds = %6, %2
  ret void
}